target datalayout = "e-m:e-p270:32:32-p271:32:32-p272:64:64-i64:64-i128:128-f80:128-n8:16:32:64-S128"
target triple = "x86_64-pc-linux-gnu"

%struct.nameData = type { [64 x i8] }
%struct.HeapTupleData = type { i32, %struct.ItemPointerData, i32, ptr }
%struct.ItemPointerData = type { %struct.BlockIdData, i16 }
%struct.BlockIdData = type { i16, i16 }
%struct.HeapTupleHeaderData = type { %union.anon.0, %struct.ItemPointerData, i16, i16, i8, [0 x i8] }
%union.anon.0 = type { %struct.HeapTupleFields }
%struct.HeapTupleFields = type { i32, i32, %union.anon.1 }
%union.anon.1 = type { i32 }
%struct.FormData_pg_proc = type { i32, %struct.nameData, i32, i32, i32, float, float, i32, i32, i8, i8, i8, i8, i8, i8, i8, i16, i16, i32, %struct.oidvector }
%struct.oidvector = type { i32, i32, i32, i32, i32, i32, [0 x i32] }

@.str.1 = private unnamed_addr constant [15 x i8] c"functioncmds.c\00", align 1
@.str.26 = private unnamed_addr constant [36 x i8] c"cache lookup failed for function %u\00", align 1
@__func__.RemoveFunctionById = private unnamed_addr constant [19 x i8] c"RemoveFunctionById\00", align 1
@.str.27 = private unnamed_addr constant [59 x i8] c"cache lookup failed for pg_aggregate tuple for function %u\00", align 1

; Function Attrs: inlinehint nounwind uwtable
define internal ptr @GETSTRUCT(ptr noundef %0) #2 {
  %2 = alloca ptr, align 8
  store ptr %0, ptr %2, align 8
  %3 = load ptr, ptr %2, align 8
  %4 = getelementptr inbounds nuw %struct.HeapTupleData, ptr %3, i32 0, i32 3
  %5 = load ptr, ptr %4, align 8
  %6 = load ptr, ptr %2, align 8
  %7 = getelementptr inbounds nuw %struct.HeapTupleData, ptr %6, i32 0, i32 3
  %8 = load ptr, ptr %7, align 8
  %9 = getelementptr inbounds nuw %struct.HeapTupleHeaderData, ptr %8, i32 0, i32 4
  %10 = load i8, ptr %9, align 2
  %11 = zext i8 %10 to i32
  %12 = sext i32 %11 to i64
  %13 = getelementptr inbounds i8, ptr %5, i64 %12
  ret ptr %13
}

; Function Attrs: inlinehint nounwind uwtable
define internal i64 @ObjectIdGetDatum(i32 noundef %0) #2 {
  %2 = alloca i32, align 4
  store i32 %0, ptr %2, align 4
  %3 = load i32, ptr %2, align 4
  %4 = zext i32 %3 to i64
  ret i64 %4
}

; Function Attrs: nounwind uwtable
define dso_local void @RemoveFunctionById(i32 noundef %0) #0 {
  %2 = alloca i32, align 4
  %3 = alloca ptr, align 8
  %4 = alloca ptr, align 8
  %5 = alloca i8, align 1
  store i32 %0, ptr %2, align 4
  call void @llvm.lifetime.start.p0(i64 8, ptr %3) #9
  call void @llvm.lifetime.start.p0(i64 8, ptr %4) #9
  call void @llvm.lifetime.start.p0(i64 1, ptr %5) #9
  %6 = call ptr @table_open(i32 noundef 1255, i32 noundef 3)
  store ptr %6, ptr %3, align 8
  %7 = load i32, ptr %2, align 4
  %8 = call i64 @ObjectIdGetDatum(i32 noundef %7)
  %9 = call ptr @SearchSysCache1(i32 noundef 47, i64 noundef %8)
  store ptr %9, ptr %4, align 8
  %10 = load ptr, ptr %4, align 8
  %11 = icmp ne ptr %10, null
  br i1 %11, label %24, label %12

12:                                               ; preds = %1
  br label %13

13:                                               ; preds = %12
  br i1 true, label %14, label %16

14:                                               ; preds = %13
  %15 = call zeroext i1 @errstart_cold(i32 noundef 21, ptr noundef null) #10
  br i1 %15, label %18, label %21

16:                                               ; preds = %13
  %17 = call zeroext i1 @errstart(i32 noundef 21, ptr noundef null)
  br i1 %17, label %18, label %21

18:                                               ; preds = %16, %14
  %19 = load i32, ptr %2, align 4
  %20 = call i32 (ptr, ...) @errmsg_internal(ptr noundef @.str.26, i32 noundef %19)
  call void @errfinish(ptr noundef @.str.1, i32 noundef 1321, ptr noundef @__func__.RemoveFunctionById)
  br label %21

21:                                               ; preds = %18, %16, %14
  unreachable

22:                                               ; No predecessors!
  br label %23

23:                                               ; preds = %22
  br label %24

24:                                               ; preds = %23, %1
  %25 = load ptr, ptr %4, align 8
  %26 = call ptr @GETSTRUCT(ptr noundef %25)
  %27 = getelementptr inbounds nuw %struct.FormData_pg_proc, ptr %26, i32 0, i32 9
  %28 = load i8, ptr %27, align 4
  store i8 %28, ptr %5, align 1
  %29 = load ptr, ptr %3, align 8
  %30 = load ptr, ptr %4, align 8
  %31 = getelementptr inbounds nuw %struct.HeapTupleData, ptr %30, i32 0, i32 1
  call void @CatalogTupleDelete(ptr noundef %29, ptr noundef %31)
  %32 = load ptr, ptr %4, align 8
  call void @ReleaseSysCache(ptr noundef %32)
  %33 = load ptr, ptr %3, align 8
  call void @table_close(ptr noundef %33, i32 noundef 3)
  %34 = load i32, ptr %2, align 4
  call void @pgstat_drop_function(i32 noundef %34)
  %35 = load i8, ptr %5, align 1
  %36 = sext i8 %35 to i32
  %37 = icmp eq i32 %36, 97
  br i1 %37, label %38, label %63

38:                                               ; preds = %24
  %39 = call ptr @table_open(i32 noundef 2600, i32 noundef 3)
  store ptr %39, ptr %3, align 8
  %40 = load i32, ptr %2, align 4
  %41 = call i64 @ObjectIdGetDatum(i32 noundef %40)
  %42 = call ptr @SearchSysCache1(i32 noundef 0, i64 noundef %41)
  store ptr %42, ptr %4, align 8
  %43 = load ptr, ptr %4, align 8
  %44 = icmp ne ptr %43, null
  br i1 %44, label %57, label %45

45:                                               ; preds = %38
  br label %46

46:                                               ; preds = %45
  br i1 true, label %47, label %49

47:                                               ; preds = %46
  %48 = call zeroext i1 @errstart_cold(i32 noundef 21, ptr noundef null) #10
  br i1 %48, label %51, label %54

49:                                               ; preds = %46
  %50 = call zeroext i1 @errstart(i32 noundef 21, ptr noundef null)
  br i1 %50, label %51, label %54

51:                                               ; preds = %49, %47
  %52 = load i32, ptr %2, align 4
  %53 = call i32 (ptr, ...) @errmsg_internal(ptr noundef @.str.27, i32 noundef %52)
  call void @errfinish(ptr noundef @.str.1, i32 noundef 1342, ptr noundef @__func__.RemoveFunctionById)
  br label %54

54:                                               ; preds = %51, %49, %47
  unreachable

55:                                               ; No predecessors!
  br label %56

56:                                               ; preds = %55
  br label %57

57:                                               ; preds = %56, %38
  %58 = load ptr, ptr %3, align 8
  %59 = load ptr, ptr %4, align 8
  %60 = getelementptr inbounds nuw %struct.HeapTupleData, ptr %59, i32 0, i32 1
  call void @CatalogTupleDelete(ptr noundef %58, ptr noundef %60)
  %61 = load ptr, ptr %4, align 8
  call void @ReleaseSysCache(ptr noundef %61)
  %62 = load ptr, ptr %3, align 8
  call void @table_close(ptr noundef %62, i32 noundef 3)
  br label %63

63:                                               ; preds = %57, %24
  call void @llvm.lifetime.end.p0(i64 1, ptr %5) #9
  call void @llvm.lifetime.end.p0(i64 8, ptr %4) #9
  call void @llvm.lifetime.end.p0(i64 8, ptr %3) #9
  ret void
}